target datalayout = "e-m:e-p270:32:32-p271:32:32-p272:64:64-i64:64-i128:128-f80:128-n8:16:32:64-S128"
target triple = "x86_64-pc-linux-gnu"

%"class.llvm::APInt" = type <{ %union.anon, i32, [4 x i8] }>
%union.anon = type { i64 }
%"class.llvm::APFloat" = type { [8 x i8], %"union.llvm::APFloat::Storage" }
%"union.llvm::APFloat::Storage" = type { %"class.llvm::detail::DoubleAPFloat", [8 x i8] }
%"class.llvm::detail::DoubleAPFloat" = type { ptr, %"class.std::unique_ptr" }
%"class.std::unique_ptr" = type { %"struct.std::__uniq_ptr_data" }
%"struct.std::__uniq_ptr_data" = type { %"class.std::__uniq_ptr_impl" }
%"class.std::__uniq_ptr_impl" = type { %"class.std::tuple" }
%"class.std::tuple" = type { %"struct.std::_Tuple_impl" }
%"struct.std::_Tuple_impl" = type { %"struct.std::_Head_base.1" }
%"struct.std::_Head_base.1" = type { ptr }

; Function Attrs: mustprogress nounwind uwtable
define linkonce_odr hidden noundef zeroext i1 @_ZNK4llvm5APInt12isSingleWordEv(ptr noundef nonnull align 8 dereferenceable(12) %0) #0 comdat align 2 {
  %2 = alloca ptr, align 8
  store ptr %0, ptr %2, align 8
  %3 = load ptr, ptr %2, align 8
  %4 = getelementptr inbounds nuw %"class.llvm::APInt", ptr %3, i32 0, i32 1
  %5 = load i32, ptr %4, align 8
  %6 = icmp ule i32 %5, 64
  ret i1 %6
}

; Function Attrs: mustprogress nounwind uwtable
define linkonce_odr hidden noundef zeroext i1 @_ZNK4llvm5APInt12needsCleanupEv(ptr noundef nonnull align 8 dereferenceable(12) %0) #0 comdat align 2 {
  %2 = alloca ptr, align 8
  store ptr %0, ptr %2, align 8
  %3 = load ptr, ptr %2, align 8
  %4 = call noundef zeroext i1 @_ZNK4llvm5APInt12isSingleWordEv(ptr noundef nonnull align 8 dereferenceable(12) %3)
  %5 = xor i1 %4, true
  ret i1 %5
}

; Function Attrs: mustprogress nounwind uwtable
define linkonce_odr hidden void @_ZN4llvm5APIntD2Ev(ptr noundef nonnull align 8 dereferenceable(12) %0) unnamed_addr #0 comdat align 2 {
  %2 = alloca ptr, align 8
  store ptr %0, ptr %2, align 8
  %3 = load ptr, ptr %2, align 8
  %4 = call noundef zeroext i1 @_ZNK4llvm5APInt12needsCleanupEv(ptr noundef nonnull align 8 dereferenceable(12) %3)
  br i1 %4, label %5, label %11

5:                                                ; preds = %1
  %6 = getelementptr inbounds nuw %"class.llvm::APInt", ptr %3, i32 0, i32 0
  %7 = load ptr, ptr %6, align 8
  %8 = icmp eq ptr %7, null
  br i1 %8, label %10, label %9

9:                                                ; preds = %5
  call void @_ZdaPv(ptr noundef %7) #13
  br label %10

10:                                               ; preds = %9, %5
  br label %11

11:                                               ; preds = %10, %1
  ret void
}

; Function Attrs: mustprogress nounwind uwtable
define dso_local noundef i32 @_ZNK4llvm18FunctionComparator10cmpNumbersEmm(ptr noundef nonnull align 8 dereferenceable(72) %0, i64 noundef %1, i64 noundef %2) #0 align 2 {
  %4 = alloca i32, align 4
  %5 = alloca ptr, align 8
  %6 = alloca i64, align 8
  %7 = alloca i64, align 8
  store ptr %0, ptr %5, align 8
  store i64 %1, ptr %6, align 8
  store i64 %2, ptr %7, align 8
  %8 = load i64, ptr %6, align 8
  %9 = load i64, ptr %7, align 8
  %10 = icmp ult i64 %8, %9
  br i1 %10, label %11, label %12

11:                                               ; preds = %3
  store i32 -1, ptr %4, align 4
  br label %18

12:                                               ; preds = %3
  %13 = load i64, ptr %6, align 8
  %14 = load i64, ptr %7, align 8
  %15 = icmp ugt i64 %13, %14
  br i1 %15, label %16, label %17

16:                                               ; preds = %12
  store i32 1, ptr %4, align 4
  br label %18

17:                                               ; preds = %12
  store i32 0, ptr %4, align 4
  br label %18

18:                                               ; preds = %17, %16, %11
  %19 = load i32, ptr %4, align 4
  ret i32 %19
}

; Function Attrs: mustprogress nounwind uwtable
define linkonce_odr hidden noundef nonnull align 1 ptr @_ZNK4llvm7APFloat12getSemanticsEv(ptr noundef nonnull align 8 dereferenceable(32) %0) #0 comdat align 2 {
  %2 = alloca ptr, align 8
  store ptr %0, ptr %2, align 8
  %3 = load ptr, ptr %2, align 8
  %4 = getelementptr inbounds nuw %"class.llvm::APFloat", ptr %3, i32 0, i32 1
  %5 = load ptr, ptr %4, align 8
  ret ptr %5
}

; Function Attrs: mustprogress nounwind uwtable
define dso_local noundef i32 @_ZNK4llvm18FunctionComparator11cmpAPFloatsERKNS_7APFloatES3_(ptr noundef nonnull align 8 dereferenceable(72) %0, ptr noundef nonnull align 8 dereferenceable(32) %1, ptr noundef nonnull align 8 dereferenceable(32) %2) #0 align 2 {
  %4 = alloca i32, align 4
  %5 = alloca ptr, align 8
  %6 = alloca ptr, align 8
  %7 = alloca ptr, align 8
  %8 = alloca ptr, align 8
  %9 = alloca ptr, align 8
  %10 = alloca i32, align 4
  %11 = alloca i32, align 4
  %12 = alloca i32, align 4
  %13 = alloca i32, align 4
  %14 = alloca %"class.llvm::APInt", align 8
  %15 = alloca %"class.llvm::APInt", align 8
  store ptr %0, ptr %5, align 8
  store ptr %1, ptr %6, align 8
  store ptr %2, ptr %7, align 8
  %16 = load ptr, ptr %5, align 8
  %17 = load ptr, ptr %6, align 8
  %18 = call noundef nonnull align 1 ptr @_ZNK4llvm7APFloat12getSemanticsEv(ptr noundef nonnull align 8 dereferenceable(32) %17)
  store ptr %18, ptr %8, align 8
  %19 = load ptr, ptr %7, align 8
  %20 = call noundef nonnull align 1 ptr @_ZNK4llvm7APFloat12getSemanticsEv(ptr noundef nonnull align 8 dereferenceable(32) %19)
  store ptr %20, ptr %9, align 8
  %21 = load ptr, ptr %8, align 8
  %22 = call noundef i32 @_ZN4llvm11APFloatBase18semanticsPrecisionERKNS_12fltSemanticsE(ptr noundef nonnull align 1 %21)
  %23 = zext i32 %22 to i64
  %24 = load ptr, ptr %9, align 8
  %25 = call noundef i32 @_ZN4llvm11APFloatBase18semanticsPrecisionERKNS_12fltSemanticsE(ptr noundef nonnull align 1 %24)
  %26 = zext i32 %25 to i64
  %27 = call noundef i32 @_ZNK4llvm18FunctionComparator10cmpNumbersEmm(ptr noundef nonnull align 8 dereferenceable(72) %16, i64 noundef %23, i64 noundef %26)
  store i32 %27, ptr %10, align 4
  %28 = load i32, ptr %10, align 4
  %29 = icmp ne i32 %28, 0
  br i1 %29, label %30, label %32

30:                                               ; preds = %3
  %31 = load i32, ptr %10, align 4
  store i32 %31, ptr %4, align 4
  br label %72

32:                                               ; preds = %3
  %33 = load ptr, ptr %8, align 8
  %34 = call noundef i32 @_ZN4llvm11APFloatBase20semanticsMaxExponentERKNS_12fltSemanticsE(ptr noundef nonnull align 1 %33)
  %35 = sext i32 %34 to i64
  %36 = load ptr, ptr %9, align 8
  %37 = call noundef i32 @_ZN4llvm11APFloatBase20semanticsMaxExponentERKNS_12fltSemanticsE(ptr noundef nonnull align 1 %36)
  %38 = sext i32 %37 to i64
  %39 = call noundef i32 @_ZNK4llvm18FunctionComparator10cmpNumbersEmm(ptr noundef nonnull align 8 dereferenceable(72) %16, i64 noundef %35, i64 noundef %38)
  store i32 %39, ptr %11, align 4
  %40 = load i32, ptr %11, align 4
  %41 = icmp ne i32 %40, 0
  br i1 %41, label %42, label %44

42:                                               ; preds = %32
  %43 = load i32, ptr %11, align 4
  store i32 %43, ptr %4, align 4
  br label %72

44:                                               ; preds = %32
  %45 = load ptr, ptr %8, align 8
  %46 = call noundef i32 @_ZN4llvm11APFloatBase20semanticsMinExponentERKNS_12fltSemanticsE(ptr noundef nonnull align 1 %45)
  %47 = sext i32 %46 to i64
  %48 = load ptr, ptr %9, align 8
  %49 = call noundef i32 @_ZN4llvm11APFloatBase20semanticsMinExponentERKNS_12fltSemanticsE(ptr noundef nonnull align 1 %48)
  %50 = sext i32 %49 to i64
  %51 = call noundef i32 @_ZNK4llvm18FunctionComparator10cmpNumbersEmm(ptr noundef nonnull align 8 dereferenceable(72) %16, i64 noundef %47, i64 noundef %50)
  store i32 %51, ptr %12, align 4
  %52 = load i32, ptr %12, align 4
  %53 = icmp ne i32 %52, 0
  br i1 %53, label %54, label %56

54:                                               ; preds = %44
  %55 = load i32, ptr %12, align 4
  store i32 %55, ptr %4, align 4
  br label %72

56:                                               ; preds = %44
  %57 = load ptr, ptr %8, align 8
  %58 = call noundef i32 @_ZN4llvm11APFloatBase19semanticsSizeInBitsERKNS_12fltSemanticsE(ptr noundef nonnull align 1 %57)
  %59 = zext i32 %58 to i64
  %60 = load ptr, ptr %9, align 8
  %61 = call noundef i32 @_ZN4llvm11APFloatBase19semanticsSizeInBitsERKNS_12fltSemanticsE(ptr noundef nonnull align 1 %60)
  %62 = zext i32 %61 to i64
  %63 = call noundef i32 @_ZNK4llvm18FunctionComparator10cmpNumbersEmm(ptr noundef nonnull align 8 dereferenceable(72) %16, i64 noundef %59, i64 noundef %62)
  store i32 %63, ptr %13, align 4
  %64 = load i32, ptr %13, align 4
  %65 = icmp ne i32 %64, 0
  br i1 %65, label %66, label %68

66:                                               ; preds = %56
  %67 = load i32, ptr %13, align 4
  store i32 %67, ptr %4, align 4
  br label %72

68:                                               ; preds = %56
  %69 = load ptr, ptr %6, align 8
  call void @_ZNK4llvm7APFloat14bitcastToAPIntEv(ptr dead_on_unwind writable sret(%"class.llvm::APInt") align 8 %14, ptr noundef nonnull align 8 dereferenceable(32) %69)
  %70 = load ptr, ptr %7, align 8
  call void @_ZNK4llvm7APFloat14bitcastToAPIntEv(ptr dead_on_unwind writable sret(%"class.llvm::APInt") align 8 %15, ptr noundef nonnull align 8 dereferenceable(32) %70)
  %71 = call noundef i32 @_ZNK4llvm18FunctionComparator9cmpAPIntsERKNS_5APIntES3_(ptr noundef nonnull align 8 dereferenceable(72) %16, ptr noundef nonnull align 8 dereferenceable(12) %14, ptr noundef nonnull align 8 dereferenceable(12) %15)
  store i32 %71, ptr %4, align 4
  call void @_ZN4llvm5APIntD2Ev(ptr noundef nonnull align 8 dereferenceable(12) %15) #12
  call void @_ZN4llvm5APIntD2Ev(ptr noundef nonnull align 8 dereferenceable(12) %14) #12
  br label %72

72:                                               ; preds = %68, %66, %54, %42, %30
  %73 = load i32, ptr %4, align 4
  ret i32 %73
}