; Function Attrs: mustprogress nounwind uwtable
define dso_local noundef range(i32 -1, 2) i32 @_ZNK4llvm18FunctionComparator11cmpAPFloatsERKNS_7APFloatES3_(ptr nonnull readnone align 8 captures(none) %0, ptr noundef nonnull align 8 dereferenceable(32) %1, ptr noundef nonnull align 8 dereferenceable(32) %2) local_unnamed_addr #2 align 2 {
  %4 = alloca %"class.llvm::APInt", align 8
  %5 = alloca %"class.llvm::APInt", align 8
  %6 = getelementptr inbounds nuw i8, ptr %1, i64 8
  %7 = load ptr, ptr %6, align 8
  %8 = getelementptr inbounds nuw i8, ptr %2, i64 8
  %9 = load ptr, ptr %8, align 8
  %10 = tail call noundef i32 @_ZN4llvm11APFloatBase18semanticsPrecisionERKNS_12fltSemanticsE(ptr noundef nonnull align 1 %7) #18
  %11 = zext i32 %10 to i64
  %12 = tail call noundef i32 @_ZN4llvm11APFloatBase18semanticsPrecisionERKNS_12fltSemanticsE(ptr noundef nonnull align 1 %9) #18
  %13 = zext i32 %12 to i64
  %.0.i = tail call noundef range(i32 -1, 2) i32 @llvm.ucmp.i32.i64(i64 %11, i64 %13)
  %.not = icmp eq i32 %10, %12
  br i1 %.not, label %14, label %_ZN4llvm5APIntD2Ev.exit31

14:                                               ; preds = %3
  %15 = tail call noundef i32 @_ZN4llvm11APFloatBase20semanticsMaxExponentERKNS_12fltSemanticsE(ptr noundef nonnull align 1 %7) #18
  %16 = sext i32 %15 to i64
  %17 = tail call noundef i32 @_ZN4llvm11APFloatBase20semanticsMaxExponentERKNS_12fltSemanticsE(ptr noundef nonnull align 1 %9) #18
  %18 = sext i32 %17 to i64
  %.0.i28 = tail call noundef range(i32 -1, 2) i32 @llvm.ucmp.i32.i64(i64 %16, i64 %18)
  %.not25 = icmp eq i32 %15, %17
  br i1 %.not25, label %19, label %_ZN4llvm5APIntD2Ev.exit31

19:                                               ; preds = %14
  %20 = tail call noundef i32 @_ZN4llvm11APFloatBase20semanticsMinExponentERKNS_12fltSemanticsE(ptr noundef nonnull align 1 %7) #18
  %21 = sext i32 %20 to i64
  %22 = tail call noundef i32 @_ZN4llvm11APFloatBase20semanticsMinExponentERKNS_12fltSemanticsE(ptr noundef nonnull align 1 %9) #18
  %23 = sext i32 %22 to i64
  %.0.i29 = tail call noundef range(i32 -1, 2) i32 @llvm.ucmp.i32.i64(i64 %21, i64 %23)
  %.not26 = icmp eq i32 %20, %22
  br i1 %.not26, label %24, label %_ZN4llvm5APIntD2Ev.exit31

24:                                               ; preds = %19
  %25 = tail call noundef i32 @_ZN4llvm11APFloatBase19semanticsSizeInBitsERKNS_12fltSemanticsE(ptr noundef nonnull align 1 %7) #18
  %26 = zext i32 %25 to i64
  %27 = tail call noundef i32 @_ZN4llvm11APFloatBase19semanticsSizeInBitsERKNS_12fltSemanticsE(ptr noundef nonnull align 1 %9) #18
  %28 = zext i32 %27 to i64
  %.0.i30 = tail call noundef range(i32 -1, 2) i32 @llvm.ucmp.i32.i64(i64 %26, i64 %28)
  %.not27 = icmp eq i32 %25, %27
  br i1 %.not27, label %29, label %_ZN4llvm5APIntD2Ev.exit31

29:                                               ; preds = %24
  call void @_ZNK4llvm7APFloat14bitcastToAPIntEv(ptr dead_on_unwind nonnull writable sret(%"class.llvm::APInt") align 8 %4, ptr noundef nonnull align 8 dereferenceable(32) %1)
  call void @_ZNK4llvm7APFloat14bitcastToAPIntEv(ptr dead_on_unwind nonnull writable sret(%"class.llvm::APInt") align 8 %5, ptr noundef nonnull align 8 dereferenceable(32) %2)
  %30 = call noundef i32 @_ZNK4llvm18FunctionComparator9cmpAPIntsERKNS_5APIntES3_(ptr nonnull align 8 poison, ptr noundef nonnull align 8 dereferenceable(12) %4, ptr noundef nonnull align 8 dereferenceable(12) %5)
  %31 = getelementptr inbounds nuw i8, ptr %5, i64 8
  %32 = load i32, ptr %31, align 8
  %33 = icmp ugt i32 %32, 64
  br i1 %33, label %34, label %_ZN4llvm5APIntD2Ev.exit

34:                                               ; preds = %29
  %35 = load ptr, ptr %5, align 8
  %36 = icmp eq ptr %35, null
  br i1 %36, label %_ZN4llvm5APIntD2Ev.exit, label %37

37:                                               ; preds = %34
  call void @_ZdaPv(ptr noundef nonnull %35) #19
  br label %_ZN4llvm5APIntD2Ev.exit

_ZN4llvm5APIntD2Ev.exit:                          ; preds = %29, %34, %37
  %38 = getelementptr inbounds nuw i8, ptr %4, i64 8
  %39 = load i32, ptr %38, align 8
  %40 = icmp ugt i32 %39, 64
  br i1 %40, label %41, label %_ZN4llvm5APIntD2Ev.exit31

41:                                               ; preds = %_ZN4llvm5APIntD2Ev.exit
  %42 = load ptr, ptr %4, align 8
  %43 = icmp eq ptr %42, null
  br i1 %43, label %_ZN4llvm5APIntD2Ev.exit31, label %44

44:                                               ; preds = %41
  call void @_ZdaPv(ptr noundef nonnull %42) #19
  br label %_ZN4llvm5APIntD2Ev.exit31

_ZN4llvm5APIntD2Ev.exit31:                        ; preds = %44, %41, %_ZN4llvm5APIntD2Ev.exit, %24, %19, %14, %3
  %.0 = phi i32 [ %.0.i, %3 ], [ %.0.i28, %14 ], [ %.0.i29, %19 ], [ %.0.i30, %24 ], [ %30, %_ZN4llvm5APIntD2Ev.exit ], [ %30, %41 ], [ %30, %44 ]
  ret i32 %.0
}